target datalayout = "e-m:e-p270:32:32-p271:32:32-p272:64:64-i64:64-i128:128-f80:128-n8:16:32:64-S128"
target triple = "x86_64-pc-linux-gnu"

%struct.AVCodecDescriptor = type { i32, i32, ptr, ptr, i32, ptr, ptr }
%struct.AVCodec = type { ptr, ptr, i32, i32, i32, i8, ptr, ptr, ptr, ptr, ptr, ptr, ptr, ptr }

@.str.2 = private unnamed_addr constant [1 x i8] zeroinitializer, align 1
@.str.12 = private unnamed_addr constant [14 x i8] c" %c%c%c%c%c%c\00", align 1
@.str.13 = private unnamed_addr constant [10 x i8] c" %-20s %s\00", align 1
@.str.14 = private unnamed_addr constant [2 x i8] c"\0A\00", align 1
@.str.162 = private unnamed_addr constant [9 x i8] c"Encoders\00", align 1
@.str.163 = private unnamed_addr constant [9 x i8] c"Decoders\00", align 1
@.str.164 = private unnamed_addr constant [12 x i8] c" (codec %s)\00", align 1

; Function Attrs: nounwind uwtable
define internal signext i8 @get_media_type_char(i32 noundef %0) #0 {
  %2 = alloca i8, align 1
  %3 = alloca i32, align 4
  store i32 %0, ptr %3, align 4, !tbaa !10
  %4 = load i32, ptr %3, align 4, !tbaa !10
  switch i32 %4, label %10 [
    i32 0, label %5
    i32 1, label %6
    i32 2, label %7
    i32 3, label %8
    i32 4, label %9
  ]

5:                                                ; preds = %1
  store i8 86, ptr %2, align 1
  br label %11

6:                                                ; preds = %1
  store i8 65, ptr %2, align 1
  br label %11

7:                                                ; preds = %1
  store i8 68, ptr %2, align 1
  br label %11

8:                                                ; preds = %1
  store i8 83, ptr %2, align 1
  br label %11

9:                                                ; preds = %1
  store i8 84, ptr %2, align 1
  br label %11

10:                                               ; preds = %1
  store i8 63, ptr %2, align 1
  br label %11

11:                                               ; preds = %10, %9, %8, %7, %6, %5
  %12 = load i8, ptr %2, align 1
  ret i8 %12
}

; Function Attrs: nounwind uwtable
define internal ptr @next_codec_for_id(i32 noundef %0, ptr noundef %1, i32 noundef %2) #0 {
  %4 = alloca ptr, align 8
  %5 = alloca i32, align 4
  %6 = alloca ptr, align 8
  %7 = alloca i32, align 4
  %8 = alloca ptr, align 8
  %9 = alloca i32, align 4
  store i32 %0, ptr %5, align 4, !tbaa !10
  store ptr %1, ptr %6, align 8, !tbaa !89
  store i32 %2, ptr %7, align 4, !tbaa !10
  call void @llvm.lifetime.start.p0(i64 8, ptr %8) #11
  br label %10

10:                                               ; preds = %33, %3
  %11 = load ptr, ptr %6, align 8, !tbaa !89
  %12 = call ptr @av_codec_iterate(ptr noundef %11)
  store ptr %12, ptr %8, align 8, !tbaa !22
  %13 = icmp ne ptr %12, null
  br i1 %13, label %14, label %34

14:                                               ; preds = %10
  %15 = load ptr, ptr %8, align 8, !tbaa !22
  %16 = getelementptr inbounds nuw %struct.AVCodec, ptr %15, i32 0, i32 3
  %17 = load i32, ptr %16, align 4, !tbaa !90
  %18 = load i32, ptr %5, align 4, !tbaa !10
  %19 = icmp eq i32 %17, %18
  br i1 %19, label %20, label %33

20:                                               ; preds = %14
  %21 = load i32, ptr %7, align 4, !tbaa !10
  %22 = icmp ne i32 %21, 0
  br i1 %22, label %23, label %27

23:                                               ; preds = %20
  %24 = load ptr, ptr %8, align 8, !tbaa !22
  %25 = call i32 @av_codec_is_encoder(ptr noundef %24)
  %26 = icmp ne i32 %25, 0
  br i1 %26, label %31, label %33

27:                                               ; preds = %20
  %28 = load ptr, ptr %8, align 8, !tbaa !22
  %29 = call i32 @av_codec_is_decoder(ptr noundef %28)
  %30 = icmp ne i32 %29, 0
  br i1 %30, label %31, label %33

31:                                               ; preds = %27, %23
  %32 = load ptr, ptr %8, align 8, !tbaa !22
  store ptr %32, ptr %4, align 8
  store i32 1, ptr %9, align 4
  br label %35

33:                                               ; preds = %27, %23, %14
  br label %10, !llvm.loop !91

34:                                               ; preds = %10
  store ptr null, ptr %4, align 8
  store i32 1, ptr %9, align 4
  br label %35

35:                                               ; preds = %34, %31
  call void @llvm.lifetime.end.p0(i64 8, ptr %8) #11
  %36 = load ptr, ptr %4, align 8
  ret ptr %36
}

; Function Attrs: nounwind uwtable
define internal i32 @print_codecs(i32 noundef %0) #0 {
  %2 = alloca i32, align 4
  %3 = alloca i32, align 4
  %4 = alloca ptr, align 8
  %5 = alloca i32, align 4
  %6 = alloca i32, align 4
  %7 = alloca i32, align 4
  %8 = alloca ptr, align 8
  %9 = alloca ptr, align 8
  %10 = alloca ptr, align 8
  store i32 %0, ptr %3, align 4, !tbaa !10
  call void @llvm.lifetime.start.p0(i64 8, ptr %4) #11
  call void @llvm.lifetime.start.p0(i64 4, ptr %5) #11
  call void @llvm.lifetime.start.p0(i64 4, ptr %6) #11
  %11 = call i32 @get_codecs_sorted(ptr noundef %4)
  store i32 %11, ptr %6, align 4, !tbaa !10
  %12 = load i32, ptr %6, align 4, !tbaa !10
  %13 = icmp slt i32 %12, 0
  br i1 %13, label %14, label %16

14:                                               ; preds = %1
  %15 = load i32, ptr %6, align 4, !tbaa !10
  store i32 %15, ptr %2, align 4
  store i32 1, ptr %7, align 4
  br label %111

16:                                               ; preds = %1
  %17 = load i32, ptr %3, align 4, !tbaa !10
  %18 = icmp ne i32 %17, 0
  %19 = select i1 %18, ptr @.str.162, ptr @.str.163
  %20 = call i32 (ptr, ...) @printf(ptr noundef @.str.161, ptr noundef %19)
  store i32 0, ptr %5, align 4, !tbaa !10
  br label %21

21:                                               ; preds = %106, %16
  %22 = load i32, ptr %5, align 4, !tbaa !10
  %23 = load i32, ptr %6, align 4, !tbaa !10
  %24 = icmp slt i32 %22, %23
  br i1 %24, label %25, label %109

25:                                               ; preds = %21
  call void @llvm.lifetime.start.p0(i64 8, ptr %8) #11
  %26 = load ptr, ptr %4, align 8, !tbaa !71
  %27 = load i32, ptr %5, align 4, !tbaa !10
  %28 = sext i32 %27 to i64
  %29 = getelementptr inbounds ptr, ptr %26, i64 %28
  %30 = load ptr, ptr %29, align 8, !tbaa !24
  store ptr %30, ptr %8, align 8, !tbaa !24
  call void @llvm.lifetime.start.p0(i64 8, ptr %9) #11
  call void @llvm.lifetime.start.p0(i64 8, ptr %10) #11
  store ptr null, ptr %10, align 8, !tbaa !4
  br label %31

31:                                               ; preds = %103, %25
  %32 = load ptr, ptr %8, align 8, !tbaa !24
  %33 = getelementptr inbounds nuw %struct.AVCodecDescriptor, ptr %32, i32 0, i32 0
  %34 = load i32, ptr %33, align 8, !tbaa !26
  %35 = load i32, ptr %3, align 4, !tbaa !10
  %36 = call ptr @next_codec_for_id(i32 noundef %34, ptr noundef %10, i32 noundef %35)
  store ptr %36, ptr %9, align 8, !tbaa !22
  %37 = icmp ne ptr %36, null
  br i1 %37, label %38, label %105

38:                                               ; preds = %31
  %39 = load ptr, ptr %8, align 8, !tbaa !24
  %40 = getelementptr inbounds nuw %struct.AVCodecDescriptor, ptr %39, i32 0, i32 1
  %41 = load i32, ptr %40, align 4, !tbaa !73
  %42 = call signext i8 @get_media_type_char(i32 noundef %41)
  %43 = sext i8 %42 to i32
  %44 = load ptr, ptr %9, align 8, !tbaa !22
  %45 = getelementptr inbounds nuw %struct.AVCodec, ptr %44, i32 0, i32 4
  %46 = load i32, ptr %45, align 8, !tbaa !93
  %47 = and i32 %46, 4096
  %48 = icmp ne i32 %47, 0
  %49 = select i1 %48, i32 70, i32 46
  %50 = load ptr, ptr %9, align 8, !tbaa !22
  %51 = getelementptr inbounds nuw %struct.AVCodec, ptr %50, i32 0, i32 4
  %52 = load i32, ptr %51, align 8, !tbaa !93
  %53 = and i32 %52, 8192
  %54 = icmp ne i32 %53, 0
  %55 = select i1 %54, i32 83, i32 46
  %56 = load ptr, ptr %9, align 8, !tbaa !22
  %57 = getelementptr inbounds nuw %struct.AVCodec, ptr %56, i32 0, i32 4
  %58 = load i32, ptr %57, align 8, !tbaa !93
  %59 = and i32 %58, 512
  %60 = icmp ne i32 %59, 0
  %61 = select i1 %60, i32 88, i32 46
  %62 = load ptr, ptr %9, align 8, !tbaa !22
  %63 = getelementptr inbounds nuw %struct.AVCodec, ptr %62, i32 0, i32 4
  %64 = load i32, ptr %63, align 8, !tbaa !93
  %65 = and i32 %64, 1
  %66 = icmp ne i32 %65, 0
  %67 = select i1 %66, i32 66, i32 46
  %68 = load ptr, ptr %9, align 8, !tbaa !22
  %69 = getelementptr inbounds nuw %struct.AVCodec, ptr %68, i32 0, i32 4
  %70 = load i32, ptr %69, align 8, !tbaa !93
  %71 = and i32 %70, 2
  %72 = icmp ne i32 %71, 0
  %73 = select i1 %72, i32 68, i32 46
  %74 = call i32 (ptr, ...) @printf(ptr noundef @.str.12, i32 noundef %43, i32 noundef %49, i32 noundef %55, i32 noundef %61, i32 noundef %67, i32 noundef %73)
  %75 = load ptr, ptr %9, align 8, !tbaa !22
  %76 = getelementptr inbounds nuw %struct.AVCodec, ptr %75, i32 0, i32 0
  %77 = load ptr, ptr %76, align 8, !tbaa !76
  %78 = load ptr, ptr %9, align 8, !tbaa !22
  %79 = getelementptr inbounds nuw %struct.AVCodec, ptr %78, i32 0, i32 1
  %80 = load ptr, ptr %79, align 8, !tbaa !94
  %81 = icmp ne ptr %80, null
  br i1 %81, label %82, label %86

82:                                               ; preds = %38
  %83 = load ptr, ptr %9, align 8, !tbaa !22
  %84 = getelementptr inbounds nuw %struct.AVCodec, ptr %83, i32 0, i32 1
  %85 = load ptr, ptr %84, align 8, !tbaa !94
  br label %87

86:                                               ; preds = %38
  br label %87

87:                                               ; preds = %86, %82
  %88 = phi ptr [ %85, %82 ], [ @.str.2, %86 ]
  %89 = call i32 (ptr, ...) @printf(ptr noundef @.str.13, ptr noundef %77, ptr noundef %88)
  %90 = load ptr, ptr %9, align 8, !tbaa !22
  %91 = getelementptr inbounds nuw %struct.AVCodec, ptr %90, i32 0, i32 0
  %92 = load ptr, ptr %91, align 8, !tbaa !76
  %93 = load ptr, ptr %8, align 8, !tbaa !24
  %94 = getelementptr inbounds nuw %struct.AVCodecDescriptor, ptr %93, i32 0, i32 2
  %95 = load ptr, ptr %94, align 8, !tbaa !47
  %96 = call i32 @strcmp(ptr noundef %92, ptr noundef %95) #12
  %97 = icmp ne i32 %96, 0
  br i1 %97, label %98, label %103

98:                                               ; preds = %87
  %99 = load ptr, ptr %8, align 8, !tbaa !24
  %100 = getelementptr inbounds nuw %struct.AVCodecDescriptor, ptr %99, i32 0, i32 2
  %101 = load ptr, ptr %100, align 8, !tbaa !47
  %102 = call i32 (ptr, ...) @printf(ptr noundef @.str.164, ptr noundef %101)
  br label %103

103:                                              ; preds = %98, %87
  %104 = call i32 (ptr, ...) @printf(ptr noundef @.str.14)
  br label %31, !llvm.loop !95

105:                                              ; preds = %31
  call void @llvm.lifetime.end.p0(i64 8, ptr %10) #11
  call void @llvm.lifetime.end.p0(i64 8, ptr %9) #11
  call void @llvm.lifetime.end.p0(i64 8, ptr %8) #11
  br label %106

106:                                              ; preds = %105
  %107 = load i32, ptr %5, align 4, !tbaa !10
  %108 = add nsw i32 %107, 1
  store i32 %108, ptr %5, align 4, !tbaa !10
  br label %21, !llvm.loop !96

109:                                              ; preds = %21
  %110 = load ptr, ptr %4, align 8, !tbaa !71
  call void @av_free(ptr noundef %110)
  store i32 0, ptr %2, align 4
  store i32 1, ptr %7, align 4
  br label %111

111:                                              ; preds = %109, %14
  call void @llvm.lifetime.end.p0(i64 4, ptr %6) #11
  call void @llvm.lifetime.end.p0(i64 4, ptr %5) #11
  call void @llvm.lifetime.end.p0(i64 8, ptr %4) #11
  %112 = load i32, ptr %2, align 4
  ret i32 %112
}