; Function Attrs: nounwind uwtable
define internal fastcc range(i32 -2147483648, 1) i32 @print_codecs(i32 noundef range(i32 0, 2) %0) unnamed_addr #2 {
  %2 = alloca ptr, align 8
  %3 = alloca ptr, align 8
  call void @llvm.lifetime.start.p0(i64 8, ptr nonnull %2) #17
  %4 = call fastcc i32 @get_codecs_sorted(ptr noundef %2)
  %5 = icmp slt i32 %4, 0
  br i1 %5, label %100, label %6

6:                                                ; preds = %1
  %.not = icmp eq i32 %0, 0
  %7 = select i1 %.not, ptr @.str.163, ptr @.str.162
  %8 = tail call i32 (ptr, ...) @printf(ptr noundef nonnull dereferenceable(1) @.str.161, ptr noundef nonnull %7)
  %.not43 = icmp eq i32 %4, 0
  br i1 %.not43, label %._crit_edge, label %.lr.ph

.lr.ph:                                           ; preds = %6
  %wide.trip.count54 = zext nneg i32 %4 to i64
  br i1 %.not, label %.lr.ph.split.us, label %.lr.ph.split

.lr.ph.split.us:                                  ; preds = %.lr.ph, %.loopexit37.us
  %indvars.iv51 = phi i64 [ %indvars.iv.next52, %.loopexit37.us ], [ 0, %.lr.ph ]
  %9 = load ptr, ptr %2, align 8, !tbaa !61
  %10 = getelementptr inbounds nuw ptr, ptr %9, i64 %indvars.iv51
  %11 = load ptr, ptr %10, align 8, !tbaa !63
  call void @llvm.lifetime.start.p0(i64 8, ptr nonnull %3) #17
  store ptr null, ptr %3, align 8, !tbaa !37
  %12 = load i32, ptr %11, align 8, !tbaa !38
  %13 = call ptr @av_codec_iterate(ptr noundef nonnull %3) #17
  %.not11.i41.us = icmp eq ptr %13, null
  br i1 %.not11.i41.us, label %.loopexit37.us, label %.lr.ph.i.lr.ph.us

.loopexit37.us:                                   ; preds = %47, %50, %.lr.ph.split.us
  call void @llvm.lifetime.end.p0(i64 8, ptr nonnull %3) #17
  %indvars.iv.next52 = add nuw nsw i64 %indvars.iv51, 1
  %exitcond55.not = icmp eq i64 %indvars.iv.next52, %wide.trip.count54
  br i1 %exitcond55.not, label %._crit_edge, label %.lr.ph.split.us, !llvm.loop !75

.lr.ph.i.lr.ph.us:                                ; preds = %.lr.ph.split.us
  %14 = getelementptr inbounds nuw i8, ptr %11, i64 4
  %15 = getelementptr inbounds nuw i8, ptr %11, i64 8
  br label %.lr.ph.i.us.us

.lr.ph.i.us.us:                                   ; preds = %47, %.lr.ph.i.lr.ph.us
  %16 = phi ptr [ %13, %.lr.ph.i.lr.ph.us ], [ %49, %47 ]
  %17 = phi i32 [ %12, %.lr.ph.i.lr.ph.us ], [ %48, %47 ]
  br label %.lr.ph.split.us.i.us.us

.lr.ph.split.us.i.us.us:                          ; preds = %50, %.lr.ph.i.us.us
  %18 = phi ptr [ %51, %50 ], [ %16, %.lr.ph.i.us.us ]
  %19 = getelementptr inbounds nuw i8, ptr %18, i64 20
  %20 = load i32, ptr %19, align 4, !tbaa !39
  %21 = icmp eq i32 %20, %17
  br i1 %21, label %22, label %50

22:                                               ; preds = %.lr.ph.split.us.i.us.us
  %23 = call i32 @av_codec_is_decoder(ptr noundef nonnull %18) #17
  %.not9.us.i.us.us = icmp eq i32 %23, 0
  br i1 %.not9.us.i.us.us, label %50, label %next_codec_for_id.exit.loopexit.us.us

switch.lookup:                                    ; preds = %next_codec_for_id.exit.loopexit.us.us
  %24 = zext nneg i32 %52 to i64
  %switch.gep = getelementptr inbounds nuw [5 x i32], ptr @switch.table.print_codecs.21, i64 0, i64 %24
  %switch.load = load i32, ptr %switch.gep, align 4
  br label %get_media_type_char.exit.us.us

get_media_type_char.exit.us.us:                   ; preds = %next_codec_for_id.exit.loopexit.us.us, %switch.lookup
  %.0.i.us.us = phi i32 [ %switch.load, %switch.lookup ], [ 63, %next_codec_for_id.exit.loopexit.us.us ]
  %25 = getelementptr inbounds nuw i8, ptr %18, i64 24
  %26 = load i32, ptr %25, align 8, !tbaa !76
  %27 = and i32 %26, 4096
  %.not26.us.us = icmp eq i32 %27, 0
  %28 = select i1 %.not26.us.us, i32 46, i32 70
  %29 = and i32 %26, 8192
  %.not27.us.us = icmp eq i32 %29, 0
  %30 = select i1 %.not27.us.us, i32 46, i32 83
  %31 = and i32 %26, 512
  %.not28.us.us = icmp eq i32 %31, 0
  %32 = select i1 %.not28.us.us, i32 46, i32 88
  %33 = and i32 %26, 1
  %.not29.us.us = icmp eq i32 %33, 0
  %34 = select i1 %.not29.us.us, i32 46, i32 66
  %35 = and i32 %26, 2
  %.not30.us.us = icmp eq i32 %35, 0
  %36 = select i1 %.not30.us.us, i32 46, i32 68
  %37 = call i32 (ptr, ...) @printf(ptr noundef nonnull dereferenceable(1) @.str.12, i32 noundef %.0.i.us.us, i32 noundef %28, i32 noundef %30, i32 noundef %32, i32 noundef %34, i32 noundef %36)
  %38 = load ptr, ptr %18, align 8, !tbaa !68
  %39 = getelementptr inbounds nuw i8, ptr %18, i64 8
  %40 = load ptr, ptr %39, align 8, !tbaa !77
  %.not31.us.us = icmp eq ptr %40, null
  %spec.select.us.us = select i1 %.not31.us.us, ptr @.str.2, ptr %40
  %41 = call i32 (ptr, ...) @printf(ptr noundef nonnull dereferenceable(1) @.str.13, ptr noundef %38, ptr noundef nonnull %spec.select.us.us)
  %42 = load ptr, ptr %18, align 8, !tbaa !68
  %43 = load ptr, ptr %15, align 8, !tbaa !30
  %44 = call i32 @strcmp(ptr noundef nonnull dereferenceable(1) %42, ptr noundef nonnull dereferenceable(1) %43) #18
  %.not32.us.us = icmp eq i32 %44, 0
  br i1 %.not32.us.us, label %47, label %45

45:                                               ; preds = %get_media_type_char.exit.us.us
  %46 = call i32 (ptr, ...) @printf(ptr noundef nonnull dereferenceable(1) @.str.164, ptr noundef nonnull %43)
  br label %47

47:                                               ; preds = %45, %get_media_type_char.exit.us.us
  %putchar.us.us = call i32 @putchar(i32 10)
  %48 = load i32, ptr %11, align 8, !tbaa !38
  %49 = call ptr @av_codec_iterate(ptr noundef nonnull %3) #17
  %.not11.i.us.us = icmp eq ptr %49, null
  br i1 %.not11.i.us.us, label %.loopexit37.us, label %.lr.ph.i.us.us, !llvm.loop !78

50:                                               ; preds = %22, %.lr.ph.split.us.i.us.us
  %51 = call ptr @av_codec_iterate(ptr noundef nonnull %3) #17
  %.not.us.i.us.us = icmp eq ptr %51, null
  br i1 %.not.us.i.us.us, label %.loopexit37.us, label %.lr.ph.split.us.i.us.us, !llvm.loop !44

next_codec_for_id.exit.loopexit.us.us:            ; preds = %22
  %52 = load i32, ptr %14, align 4, !tbaa !65
  %53 = icmp ult i32 %52, 5
  br i1 %53, label %switch.lookup, label %get_media_type_char.exit.us.us

.lr.ph.split:                                     ; preds = %.lr.ph, %.loopexit36
  %indvars.iv = phi i64 [ %indvars.iv.next, %.loopexit36 ], [ 0, %.lr.ph ]
  %54 = load ptr, ptr %2, align 8, !tbaa !61
  %55 = getelementptr inbounds nuw ptr, ptr %54, i64 %indvars.iv
  %56 = load ptr, ptr %55, align 8, !tbaa !63
  call void @llvm.lifetime.start.p0(i64 8, ptr nonnull %3) #17
  store ptr null, ptr %3, align 8, !tbaa !37
  %57 = load i32, ptr %56, align 8, !tbaa !38
  %58 = call ptr @av_codec_iterate(ptr noundef nonnull %3) #17
  %.not11.i41 = icmp eq ptr %58, null
  br i1 %.not11.i41, label %.loopexit36, label %.lr.ph.i.lr.ph

.lr.ph.i.lr.ph:                                   ; preds = %.lr.ph.split
  %59 = getelementptr inbounds nuw i8, ptr %56, i64 4
  %60 = getelementptr inbounds nuw i8, ptr %56, i64 8
  br label %.lr.ph.i

.lr.ph.i:                                         ; preds = %.lr.ph.i.lr.ph, %96
  %61 = phi ptr [ %58, %.lr.ph.i.lr.ph ], [ %98, %96 ]
  %62 = phi i32 [ %57, %.lr.ph.i.lr.ph ], [ %97, %96 ]
  br label %.lr.ph.split.i

.lr.ph.split.i:                                   ; preds = %.lr.ph.i, %69
  %63 = phi ptr [ %70, %69 ], [ %61, %.lr.ph.i ]
  %64 = getelementptr inbounds nuw i8, ptr %63, i64 20
  %65 = load i32, ptr %64, align 4, !tbaa !39
  %66 = icmp eq i32 %65, %62
  br i1 %66, label %67, label %69

67:                                               ; preds = %.lr.ph.split.i
  %68 = call i32 @av_codec_is_encoder(ptr noundef nonnull %63) #17
  %.not10.i = icmp eq i32 %68, 0
  br i1 %.not10.i, label %69, label %next_codec_for_id.exit.loopexit35

69:                                               ; preds = %67, %.lr.ph.split.i
  %70 = call ptr @av_codec_iterate(ptr noundef nonnull %3) #17
  %.not.i = icmp eq ptr %70, null
  br i1 %.not.i, label %.loopexit36, label %.lr.ph.split.i, !llvm.loop !44

next_codec_for_id.exit.loopexit35:                ; preds = %67
  %71 = load i32, ptr %59, align 4, !tbaa !65
  %72 = icmp ult i32 %71, 5
  br i1 %72, label %switch.lookup68, label %get_media_type_char.exit

switch.lookup68:                                  ; preds = %next_codec_for_id.exit.loopexit35
  %73 = zext nneg i32 %71 to i64
  %switch.gep69 = getelementptr inbounds nuw [5 x i32], ptr @switch.table.print_codecs.21, i64 0, i64 %73
  %switch.load70 = load i32, ptr %switch.gep69, align 4
  br label %get_media_type_char.exit

get_media_type_char.exit:                         ; preds = %next_codec_for_id.exit.loopexit35, %switch.lookup68
  %.0.i = phi i32 [ %switch.load70, %switch.lookup68 ], [ 63, %next_codec_for_id.exit.loopexit35 ]
  %74 = getelementptr inbounds nuw i8, ptr %63, i64 24
  %75 = load i32, ptr %74, align 8, !tbaa !76
  %76 = and i32 %75, 4096
  %.not26 = icmp eq i32 %76, 0
  %77 = select i1 %.not26, i32 46, i32 70
  %78 = and i32 %75, 8192
  %.not27 = icmp eq i32 %78, 0
  %79 = select i1 %.not27, i32 46, i32 83
  %80 = and i32 %75, 512
  %.not28 = icmp eq i32 %80, 0
  %81 = select i1 %.not28, i32 46, i32 88
  %82 = and i32 %75, 1
  %.not29 = icmp eq i32 %82, 0
  %83 = select i1 %.not29, i32 46, i32 66
  %84 = and i32 %75, 2
  %.not30 = icmp eq i32 %84, 0
  %85 = select i1 %.not30, i32 46, i32 68
  %86 = call i32 (ptr, ...) @printf(ptr noundef nonnull dereferenceable(1) @.str.12, i32 noundef %.0.i, i32 noundef %77, i32 noundef %79, i32 noundef %81, i32 noundef %83, i32 noundef %85)
  %87 = load ptr, ptr %63, align 8, !tbaa !68
  %88 = getelementptr inbounds nuw i8, ptr %63, i64 8
  %89 = load ptr, ptr %88, align 8, !tbaa !77
  %.not31 = icmp eq ptr %89, null
  %spec.select = select i1 %.not31, ptr @.str.2, ptr %89
  %90 = call i32 (ptr, ...) @printf(ptr noundef nonnull dereferenceable(1) @.str.13, ptr noundef %87, ptr noundef nonnull %spec.select)
  %91 = load ptr, ptr %63, align 8, !tbaa !68
  %92 = load ptr, ptr %60, align 8, !tbaa !30
  %93 = call i32 @strcmp(ptr noundef nonnull dereferenceable(1) %91, ptr noundef nonnull dereferenceable(1) %92) #18
  %.not32 = icmp eq i32 %93, 0
  br i1 %.not32, label %96, label %94

94:                                               ; preds = %get_media_type_char.exit
  %95 = call i32 (ptr, ...) @printf(ptr noundef nonnull dereferenceable(1) @.str.164, ptr noundef nonnull %92)
  br label %96

96:                                               ; preds = %94, %get_media_type_char.exit
  %putchar = call i32 @putchar(i32 10)
  %97 = load i32, ptr %56, align 8, !tbaa !38
  %98 = call ptr @av_codec_iterate(ptr noundef nonnull %3) #17
  %.not11.i = icmp eq ptr %98, null
  br i1 %.not11.i, label %.loopexit36, label %.lr.ph.i, !llvm.loop !78

.loopexit36:                                      ; preds = %96, %69, %.lr.ph.split
  call void @llvm.lifetime.end.p0(i64 8, ptr nonnull %3) #17
  %indvars.iv.next = add nuw nsw i64 %indvars.iv, 1
  %exitcond.not = icmp eq i64 %indvars.iv.next, %wide.trip.count54
  br i1 %exitcond.not, label %._crit_edge, label %.lr.ph.split, !llvm.loop !75

._crit_edge:                                      ; preds = %.loopexit36, %.loopexit37.us, %6
  %99 = load ptr, ptr %2, align 8, !tbaa !61
  call void @av_free(ptr noundef %99) #17
  br label %100

100:                                              ; preds = %1, %._crit_edge
  %.0 = phi i32 [ 0, %._crit_edge ], [ %4, %1 ]
  call void @llvm.lifetime.end.p0(i64 8, ptr nonnull %2) #17
  ret i32 %.0
}